target datalayout = "e-m:e-p270:32:32-p271:32:32-p272:64:64-i64:64-i128:128-f80:128-n8:16:32:64-S128"
target triple = "x86_64-pc-linux-gnu"

%struct.H264SEIContext = type { %struct.H2645SEI, %struct.H264SEIPictureTiming, %struct.H264SEIRecoveryPoint, %struct.H264SEIBufferingPeriod, %struct.H264SEIGreenMetaData }
%struct.H2645SEI = type { %struct.H2645SEIA53Caption, %struct.H2645SEIAFD, %struct.HEVCSEIDynamicHDRPlus, %struct.HEVCSEIDynamicHDRVivid, %struct.HEVCSEILCEVC, %struct.H2645SEIUnregistered, %struct.H2645SEIFramePacking, %struct.H2645SEIDisplayOrientation, %struct.H2645SEIAlternativeTransfer, %struct.H2645SEIAmbientViewingEnvironment, %struct.H2645SEIMasteringDisplay, %struct.H2645SEIContentLight, %struct.AVFilmGrainAFGS1Params, ptr }
%struct.H2645SEIA53Caption = type { ptr }
%struct.H2645SEIAFD = type { i32, i8 }
%struct.HEVCSEIDynamicHDRPlus = type { ptr }
%struct.HEVCSEIDynamicHDRVivid = type { ptr }
%struct.HEVCSEILCEVC = type { ptr }
%struct.H2645SEIUnregistered = type { ptr, i32, i32 }
%struct.H2645SEIFramePacking = type { i32, i32, i32, i32, i32, i32, i32, i32 }
%struct.H2645SEIDisplayOrientation = type { i32, i32, i32, i32 }
%struct.H2645SEIAlternativeTransfer = type { i32, i32 }
%struct.H2645SEIAmbientViewingEnvironment = type { i32, i32, i16, i16 }
%struct.H2645SEIMasteringDisplay = type { i32, [3 x [2 x i16]], [2 x i16], i32, i32 }
%struct.H2645SEIContentLight = type { i32, i16, i16 }
%struct.AVFilmGrainAFGS1Params = type { i32, [8 x ptr] }
%struct.H264SEIPictureTiming = type { [40 x i8], i32, i32, i32, i32, i32, i32, [3 x %struct.H264SEITimeCode], i32 }
%struct.H264SEITimeCode = type { i32, i32, i32, i32, i32, i32 }
%struct.H264SEIRecoveryPoint = type { i32 }
%struct.H264SEIBufferingPeriod = type { i32, [32 x i32] }
%struct.H264SEIGreenMetaData = type { i8, i8, i16, i16, i8, i8, i8, i8, i8, i16 }

; Function Attrs: nounwind uwtable
define void @ff_h264_sei_uninit(ptr noundef %0) #0 {
  %2 = alloca ptr, align 8
  store ptr %0, ptr %2, align 8, !tbaa !4
  %3 = load ptr, ptr %2, align 8, !tbaa !4
  %4 = getelementptr inbounds nuw %struct.H264SEIContext, ptr %3, i32 0, i32 2
  %5 = getelementptr inbounds nuw %struct.H264SEIRecoveryPoint, ptr %4, i32 0, i32 0
  store i32 -1, ptr %5, align 4, !tbaa !9
  %6 = load ptr, ptr %2, align 8, !tbaa !4
  %7 = getelementptr inbounds nuw %struct.H264SEIContext, ptr %6, i32 0, i32 1
  %8 = getelementptr inbounds nuw %struct.H264SEIPictureTiming, ptr %7, i32 0, i32 5
  store i32 0, ptr %8, align 8, !tbaa !35
  %9 = load ptr, ptr %2, align 8, !tbaa !4
  %10 = getelementptr inbounds nuw %struct.H264SEIContext, ptr %9, i32 0, i32 1
  %11 = getelementptr inbounds nuw %struct.H264SEIPictureTiming, ptr %10, i32 0, i32 6
  store i32 -1, ptr %11, align 4, !tbaa !36
  %12 = load ptr, ptr %2, align 8, !tbaa !4
  %13 = getelementptr inbounds nuw %struct.H264SEIContext, ptr %12, i32 0, i32 1
  %14 = getelementptr inbounds nuw %struct.H264SEIPictureTiming, ptr %13, i32 0, i32 2
  store i32 0, ptr %14, align 4, !tbaa !37
  %15 = load ptr, ptr %2, align 8, !tbaa !4
  %16 = getelementptr inbounds nuw %struct.H264SEIContext, ptr %15, i32 0, i32 3
  %17 = getelementptr inbounds nuw %struct.H264SEIBufferingPeriod, ptr %16, i32 0, i32 0
  store i32 0, ptr %17, align 8, !tbaa !38
  %18 = load ptr, ptr %2, align 8, !tbaa !4
  %19 = getelementptr inbounds nuw %struct.H264SEIContext, ptr %18, i32 0, i32 0
  %20 = getelementptr inbounds nuw %struct.H2645SEI, ptr %19, i32 0, i32 6
  %21 = getelementptr inbounds nuw %struct.H2645SEIFramePacking, ptr %20, i32 0, i32 0
  store i32 0, ptr %21, align 8, !tbaa !39
  %22 = load ptr, ptr %2, align 8, !tbaa !4
  %23 = getelementptr inbounds nuw %struct.H264SEIContext, ptr %22, i32 0, i32 0
  %24 = getelementptr inbounds nuw %struct.H2645SEI, ptr %23, i32 0, i32 7
  %25 = getelementptr inbounds nuw %struct.H2645SEIDisplayOrientation, ptr %24, i32 0, i32 0
  store i32 0, ptr %25, align 8, !tbaa !40
  %26 = load ptr, ptr %2, align 8, !tbaa !4
  %27 = getelementptr inbounds nuw %struct.H264SEIContext, ptr %26, i32 0, i32 0
  %28 = getelementptr inbounds nuw %struct.H2645SEI, ptr %27, i32 0, i32 1
  %29 = getelementptr inbounds nuw %struct.H2645SEIAFD, ptr %28, i32 0, i32 0
  store i32 0, ptr %29, align 8, !tbaa !41
  %30 = load ptr, ptr %2, align 8, !tbaa !4
  %31 = getelementptr inbounds nuw %struct.H264SEIContext, ptr %30, i32 0, i32 0
  call void @ff_h2645_sei_reset(ptr noundef %31)
  ret void
}