; Function Attrs: nounwind uwtable
define void @ff_h264_sei_uninit(ptr noundef initializes((8, 12), (56, 60), (88, 92), (284, 288), (296, 304), (380, 388)) %0) local_unnamed_addr #0 {
  %2 = getelementptr inbounds nuw i8, ptr %0, i64 380
  store i32 -1, ptr %2, align 4, !tbaa !4
  %3 = getelementptr inbounds nuw i8, ptr %0, i64 296
  store i32 0, ptr %3, align 8, !tbaa !33
  %4 = getelementptr inbounds nuw i8, ptr %0, i64 300
  store i32 -1, ptr %4, align 4, !tbaa !34
  %5 = getelementptr inbounds nuw i8, ptr %0, i64 284
  store i32 0, ptr %5, align 4, !tbaa !35
  %6 = getelementptr inbounds nuw i8, ptr %0, i64 384
  store i32 0, ptr %6, align 8, !tbaa !36
  %7 = getelementptr inbounds nuw i8, ptr %0, i64 56
  store i32 0, ptr %7, align 8, !tbaa !37
  %8 = getelementptr inbounds nuw i8, ptr %0, i64 88
  store i32 0, ptr %8, align 8, !tbaa !38
  %9 = getelementptr inbounds nuw i8, ptr %0, i64 8
  store i32 0, ptr %9, align 8, !tbaa !39
  tail call void @ff_h2645_sei_reset(ptr noundef %0) #7
  ret void
}